gpasm-0.14.2 #711 (Jul 26 2012)     addup.asm   9-4-2013  16:20:22          PAGE  1


LOC  OBJECT CODE     LINE SOURCE TEXT
  VALUE

                      00001 ;--------------------------------------------------------
                      00002 ; File Created by SDCC : free open source ANSI-C Compiler
                      00003 ; Version 3.3.1 #8747 (Jul 10 2013) (Linux)
                      00004 ; This file was generated Wed Sep  4 16:20:22 2013
                      00005 ;--------------------------------------------------------
                      00006 ; PIC port for the 14-bit core
                      00007 ;--------------------------------------------------------
                      00008         .file   "/home/federico/Projects/piklabworkspace/c18_2/src/addup.c"
                      00009         list    p=16f877
                      00010         radix dec
                      00011         include "p16f877.inc"
                      00001         LIST
                      00002 ; P16F877.INC  Standard Header File, Version 1.00    Microchip Technology, Inc.
                      00373         LIST
                      00012 ;--------------------------------------------------------
                      00013 ; external declarations
                      00014 ;--------------------------------------------------------
                      00015 
                      00016         extern PSAVE
                      00017         extern SSAVE
                      00018         extern WSAVE
                      00019         extern STK12
                      00020         extern STK11
                      00021         extern STK10
                      00022         extern STK09
                      00023         extern STK08
                      00024         extern STK07
                      00025         extern STK06
                      00026         extern STK05
                      00027         extern STK04
                      00028         extern STK03
                      00029         extern STK02
                      00030         extern STK01
                      00031         extern STK00
                      00032 ;--------------------------------------------------------
                      00033 ; global declarations
                      00034 ;--------------------------------------------------------
                      00035         global  _addup
                      00036 
                      00037 ;--------------------------------------------------------
                      00038 ; global definitions
                      00039 ;--------------------------------------------------------
                      00040 ;--------------------------------------------------------
                      00041 ; absolute symbol definitions
                      00042 ;--------------------------------------------------------
                      00043 ;--------------------------------------------------------
                      00044 ; compiler-defined variables
                      00045 ;--------------------------------------------------------
                      00046 UDL_addup_0     udata
0000                  00047 r0x1001 res     1
0000                  00048 r0x1000 res     1
0001                  00049 r0x1003 res     1
0001                  00050 r0x1002 res     1
gpasm-0.14.2 #711 (Jul 26 2012)     addup.asm   9-4-2013  16:20:22          PAGE  2


LOC  OBJECT CODE     LINE SOURCE TEXT
  VALUE

                      00051 ;--------------------------------------------------------
                      00052 ; initialized data
                      00053 ;--------------------------------------------------------
                      00054 ;--------------------------------------------------------
                      00055 ; overlayable items in internal ram 
                      00056 ;--------------------------------------------------------
                      00057 ;       udata_ovr
                      00058 ;--------------------------------------------------------
                      00059 ; code
                      00060 ;--------------------------------------------------------
                      00061 code_addup      code
                      00062 ;***
                      00063 ;  pBlock Stats: dbName = C
                      00064 ;***
                      00065 ;entry:  _addup ;Function start
                      00066 ; 2 exit points
                      00067 ;has an exit
                      00068 ;7 compiler assigned registers:
                      00069 ;   r0x1000
                      00070 ;   STK00
                      00071 ;   r0x1001
                      00072 ;   STK01
                      00073 ;   r0x1002
                      00074 ;   STK02
                      00075 ;   r0x1003
                      00076 ;; Starting pCode block
                      00077 ;;; /home/sdcc-builder/build/sdcc-build/orig/sdcc/src/pic14/gen.c:2316:resultRemat *{*
                      00078 ;;; /home/sdcc-builder/build/sdcc-build/orig/sdcc/src/pic14/gen.c:2760:genLabel *{*
                      00079 ;; ***  genLabel  2763
                      00080 ;;; /home/sdcc-builder/build/sdcc-build/orig/sdcc/src/pic14/gen.c:2316:resultRemat *{*
                      00081 ;;; /home/sdcc-builder/build/sdcc-build/orig/sdcc/src/pic14/gen.c:2340:genFunction *{*
                      00082 ;; ***  genFunction  2342 curr label offset=0previous max_key=0 
0000                  00083 _addup  ;Function start
                      00084 ; 2 exit points
                      00085 ;;; /home/sdcc-builder/build/sdcc-build/orig/sdcc/src/pic14/gen.c:2316:resultRemat *{*
                      00086 ;;; /home/sdcc-builder/build/sdcc-build/orig/sdcc/src/pic14/gen.c:7358:genReceive *{*
                      00087 ;; ***  genReceive  7359
                      00088 ;;      694 register type nRegs=2
                      00089 ;;; /home/sdcc-builder/build/sdcc-build/orig/sdcc/src/pic14/gen.c:1907:assignResultValue *{*
                      00090 ;; ***  assignResultValue  1909
                      00091 ;;      line = 1911 result -=-, size=0, left AOP_REG=r0x1048, size=2, right -=-, size=0
                      00092 ;; >>> /home/sdcc-builder/build/sdcc-build/orig/sdcc/src/pic14/gen.c:1393:movwf
                      00093 ;;      1109 rIdx = r0x1049 
                      00094         .line   3; "/home/federico/Projects/piklabworkspace/c18_2/src/addup.c"  long int addup(int param1, int param2){
0000   0000 0000      00095         BANKSEL r0x1000
0002   0080           00096         MOVWF   r0x1000
                      00097 ;; >>> /home/sdcc-builder/build/sdcc-build/orig/sdcc/src/pic14/gen.c:1423:get_returnvalue
                      00098 ;; ***  popRegFromIdx,1042  , rIdx=0x7f
0003   0800           00099         MOVF    STK00,W
                      00100 ;; >>> /home/sdcc-builder/build/sdcc-build/orig/sdcc/src/pic14/gen.c:1393:movwf
                      00101 ;;      1109 rIdx = r0x1048 
0004   0080           00102         MOVWF   r0x1001
                      00103 ;;; /home/sdcc-builder/build/sdcc-build/orig/sdcc/src/pic14/gen.c:2316:resultRemat *{*
gpasm-0.14.2 #711 (Jul 26 2012)     addup.asm   9-4-2013  16:20:22          PAGE  3


LOC  OBJECT CODE     LINE SOURCE TEXT
  VALUE

                      00104 ;;; /home/sdcc-builder/build/sdcc-build/orig/sdcc/src/pic14/gen.c:7358:genReceive *{*
                      00105 ;; ***  genReceive  7359
                      00106 ;;      694 register type nRegs=2
                      00107 ;;; /home/sdcc-builder/build/sdcc-build/orig/sdcc/src/pic14/gen.c:1907:assignResultValue *{*
                      00108 ;; ***  assignResultValue  1909
                      00109 ;;      line = 1911 result -=-, size=0, left AOP_REG=r0x104A, size=2, right -=-, size=0
                      00110 ;; >>> /home/sdcc-builder/build/sdcc-build/orig/sdcc/src/pic14/gen.c:1423:get_returnvalue
                      00111 ;; ***  popRegFromIdx,1042  , rIdx=0x7e
0005   0800           00112         MOVF    STK01,W
                      00113 ;; >>> /home/sdcc-builder/build/sdcc-build/orig/sdcc/src/pic14/gen.c:1393:movwf
                      00114 ;;      1109 rIdx = r0x104B 
0006   0080           00115         MOVWF   r0x1002
                      00116 ;; >>> /home/sdcc-builder/build/sdcc-build/orig/sdcc/src/pic14/gen.c:1423:get_returnvalue
                      00117 ;; ***  popRegFromIdx,1042  , rIdx=0x7d
0007   0800           00118         MOVF    STK02,W
                      00119 ;; >>> /home/sdcc-builder/build/sdcc-build/orig/sdcc/src/pic14/gen.c:1393:movwf
                      00120 ;;      1109 rIdx = r0x104A 
                      00121         .line   4; "/home/federico/Projects/piklabworkspace/c18_2/src/addup.c"  return param1 + param2;
0008   0080           00122         MOVWF   r0x1003
0009   0700           00123         ADDWF   r0x1001,W
                      00124 ;; >>> /home/sdcc-builder/build/sdcc-build/orig/sdcc/src/pic14/genarith.c:736:genPlus
                      00125 ;;      1109 rIdx = r0x1048 
000A   0080           00126         MOVWF   r0x1001
                      00127 ;; >>> /home/sdcc-builder/build/sdcc-build/orig/sdcc/src/pic14/genarith.c:771:genPlus
                      00128 ;;      1109 rIdx = r0x1049 
000B   0800           00129         MOVF    r0x1000,W
000C   0800           00130         MOVF    r0x1002,W
                      00131 ;; >>> /home/sdcc-builder/build/sdcc-build/orig/sdcc/src/pic14/genarith.c:775:genPlus
000D   1803           00132         BTFSC   STATUS,0
                      00133 ;; >>> /home/sdcc-builder/build/sdcc-build/orig/sdcc/src/pic14/genarith.c:776:genPlus
                      00134 ;;      1109 rIdx = r0x104B 
000E   0F00           00135         INCFSZ  r0x1002,W
                      00136 ;; >>> /home/sdcc-builder/build/sdcc-build/orig/sdcc/src/pic14/genarith.c:777:genPlus
                      00137 ;;      1109 rIdx = r0x1049 
000F   0780           00138         ADDWF   r0x1000,F
                      00139 ;; >>> /home/sdcc-builder/build/sdcc-build/orig/sdcc/src/pic14/genarith.c:812:genPlus
                      00140 ;;      1109 rIdx = r0x104A 
0010   0180           00141         CLRF    r0x1003
                      00142 ;; >>> /home/sdcc-builder/build/sdcc-build/orig/sdcc/src/pic14/genarith.c:813:genPlus
                      00143 ;;      1109 rIdx = r0x104A 
0011   0D80           00144         RLF     r0x1003,F
                      00145 ;; >>> /home/sdcc-builder/build/sdcc-build/orig/sdcc/src/pic14/genarith.c:821:genPlus
0012   1B80           00146         BTFSC   r0x1000,7
                      00147 ;; >>> /home/sdcc-builder/build/sdcc-build/orig/sdcc/src/pic14/genarith.c:822:genPlus
                      00148 ;;      1109 rIdx = r0x104A 
0013   0380           00149         DECF    r0x1003,F
                      00150 ;; >>> /home/sdcc-builder/build/sdcc-build/orig/sdcc/src/pic14/genarith.c:823:genPlus
0014   1B80           00151         BTFSC   r0x1002,7
                      00152 ;; >>> /home/sdcc-builder/build/sdcc-build/orig/sdcc/src/pic14/genarith.c:824:genPlus
                      00153 ;;      1109 rIdx = r0x104A 
0015   0380           00154         DECF    r0x1003,F
                      00155 ;; >>> /home/sdcc-builder/build/sdcc-build/orig/sdcc/src/pic14/genarith.c:828:genPlus
0016   3000           00156         MOVLW   0x00
gpasm-0.14.2 #711 (Jul 26 2012)     addup.asm   9-4-2013  16:20:22          PAGE  4


LOC  OBJECT CODE     LINE SOURCE TEXT
  VALUE

                      00157 ;; >>> /home/sdcc-builder/build/sdcc-build/orig/sdcc/src/pic14/genarith.c:829:genPlus
0017   1B80           00158         BTFSC   r0x1003,7
                      00159 ;; >>> /home/sdcc-builder/build/sdcc-build/orig/sdcc/src/pic14/genarith.c:830:genPlus
0018   30FF           00160         MOVLW   0xff
                      00161 ;; >>> /home/sdcc-builder/build/sdcc-build/orig/sdcc/src/pic14/genarith.c:838:genPlus
                      00162 ;;      1109 rIdx = r0x104B 
0019   0080           00163         MOVWF   r0x1002
                      00164 ;;; /home/sdcc-builder/build/sdcc-build/orig/sdcc/src/pic14/gen.c:2316:resultRemat *{*
                      00165 ;;; /home/sdcc-builder/build/sdcc-build/orig/sdcc/src/pic14/gen.c:2683:genRet *{*
                      00166 ;; ***  genRet  2685
                      00167 ;;      694 register type nRegs=4
                      00168 ;;; /home/sdcc-builder/build/sdcc-build/orig/sdcc/src/pic14/gen.c:1343:mov2w_op *{*
                      00169 ;; ***  mov2w  1381  offset=0
                      00170 ;; >>> /home/sdcc-builder/build/sdcc-build/orig/sdcc/src/pic14/gen.c:1386:mov2w
                      00171 ;;      1109 rIdx = r0x1048 
001A   0800           00172         MOVF    r0x1001,W
                      00173 ;; >>> /home/sdcc-builder/build/sdcc-build/orig/sdcc/src/pic14/gen.c:1416:pass_argument
                      00174 ;; ***  popRegFromIdx,1042  , rIdx=0x7d
001B   0080           00175         MOVWF   STK02
                      00176 ;;; /home/sdcc-builder/build/sdcc-build/orig/sdcc/src/pic14/gen.c:1343:mov2w_op *{*
                      00177 ;; ***  mov2w  1381  offset=1
                      00178 ;; >>> /home/sdcc-builder/build/sdcc-build/orig/sdcc/src/pic14/gen.c:1386:mov2w
                      00179 ;;      1109 rIdx = r0x1049 
001C   0800           00180         MOVF    r0x1000,W
                      00181 ;; >>> /home/sdcc-builder/build/sdcc-build/orig/sdcc/src/pic14/gen.c:1416:pass_argument
                      00182 ;; ***  popRegFromIdx,1042  , rIdx=0x7e
001D   0080           00183         MOVWF   STK01
                      00184 ;;; /home/sdcc-builder/build/sdcc-build/orig/sdcc/src/pic14/gen.c:1343:mov2w_op *{*
                      00185 ;; ***  mov2w  1381  offset=2
                      00186 ;; >>> /home/sdcc-builder/build/sdcc-build/orig/sdcc/src/pic14/gen.c:1386:mov2w
                      00187 ;;      1109 rIdx = r0x104A 
001E   0800           00188         MOVF    r0x1003,W
                      00189 ;; >>> /home/sdcc-builder/build/sdcc-build/orig/sdcc/src/pic14/gen.c:1416:pass_argument
                      00190 ;; ***  popRegFromIdx,1042  , rIdx=0x7f
001F   0080           00191         MOVWF   STK00
                      00192 ;;; /home/sdcc-builder/build/sdcc-build/orig/sdcc/src/pic14/gen.c:1343:mov2w_op *{*
                      00193 ;; ***  mov2w  1381  offset=3
                      00194 ;; >>> /home/sdcc-builder/build/sdcc-build/orig/sdcc/src/pic14/gen.c:1386:mov2w
                      00195 ;;      1109 rIdx = r0x104B 
0020   0800           00196         MOVF    r0x1002,W
                      00197 ;;; /home/sdcc-builder/build/sdcc-build/orig/sdcc/src/pic14/gen.c:2316:resultRemat *{*
                      00198 ;;; /home/sdcc-builder/build/sdcc-build/orig/sdcc/src/pic14/gen.c:2760:genLabel *{*
                      00199 ;; ***  genLabel  2763
                      00200 ;;; /home/sdcc-builder/build/sdcc-build/orig/sdcc/src/pic14/gen.c:2316:resultRemat *{*
                      00201 ;;; /home/sdcc-builder/build/sdcc-build/orig/sdcc/src/pic14/gen.c:2528:genEndFunction *{*
                      00202 ;; ***  genEndFunction  2530
0021   0008           00203         RETURN  
                      00204 ; exit point of _addup
                      00205 
                      00206 
                      00207 ;       code size estimation:
                      00208 ;          32+    1 =    33 instructions (   68 byte)
                      00209 
gpasm-0.14.2 #711 (Jul 26 2012)     addup.asm   9-4-2013  16:20:22          PAGE  5


LOC  OBJECT CODE     LINE SOURCE TEXT
  VALUE

                      00210         end
gpasm-0.14.2 #711 (Jul 26 2012)     addup.asm   9-4-2013  16:20:22          PAGE  6


SYMBOL TABLE
  LABEL                             VALUE

ACKDT                             00000005
ACKEN                             00000004
ACKSTAT                           00000006
ADCON0                            0000001F
ADCON1                            0000009F
ADCS0                             00000006
ADCS1                             00000007
ADDEN                             00000003
ADFM                              00000007
ADIE                              00000006
ADIF                              00000006
ADON                              00000000
ADRESH                            0000001E
ADRESL                            0000009E
BCLIE                             00000003
BCLIF                             00000003
BF                                00000000
BRGH                              00000002
C                                 00000000
CCP1CON                           00000017
CCP1IE                            00000002
CCP1IF                            00000002
CCP1M0                            00000000
CCP1M1                            00000001
CCP1M2                            00000002
CCP1M3                            00000003
CCP1X                             00000005
CCP1Y                             00000004
CCP2CON                           0000001D
CCP2IE                            00000000
CCP2IF                            00000000
CCP2M0                            00000000
CCP2M1                            00000001
CCP2M2                            00000002
CCP2M3                            00000003
CCP2X                             00000005
CCP2Y                             00000004
CCPR1H                            00000016
CCPR1L                            00000015
CCPR2H                            0000001C
CCPR2L                            0000001B
CHS0                              00000003
CHS1                              00000004
CHS2                              00000005
CKE                               00000006
CKP                               00000004
CREN                              00000004
CSRC                              00000007
D                                 00000005
DATA_ADDRESS                      00000005
DC                                00000001
D_A                               00000005
EEADR                             0000010D
gpasm-0.14.2 #711 (Jul 26 2012)     addup.asm   9-4-2013  16:20:22          PAGE  7


SYMBOL TABLE
  LABEL                             VALUE 

EEADRH                            0000010F
EECON1                            0000018C
EECON2                            0000018D
EEDATA                            0000010C
EEDATH                            0000010E
EEIE                              00000004
EEIF                              00000004
EEPGD                             00000007
F                                 00000001
FERR                              00000002
FSR                               00000004
GCEN                              00000007
GIE                               00000007
GO                                00000002
GO_DONE                           00000002
I2C_DATA                          00000005
I2C_READ                          00000002
I2C_START                         00000003
I2C_STOP                          00000004
IBF                               00000007
IBOV                              00000005
INDF                              00000000
INTCON                            0000000B
INTE                              00000004
INTEDG                            00000006
INTF                              00000001
IRP                               00000007
NOT_A                             00000005
NOT_ADDRESS                       00000005
NOT_BO                            00000000
NOT_BOR                           00000000
NOT_DONE                          00000002
NOT_PD                            00000003
NOT_POR                           00000001
NOT_RBPU                          00000007
NOT_RC8                           00000006
NOT_T1SYNC                        00000002
NOT_TO                            00000004
NOT_TX8                           00000006
NOT_W                             00000002
NOT_WRITE                         00000002
OBF                               00000006
OERR                              00000001
OPTION_REG                        00000081
P                                 00000004
PCFG0                             00000000
PCFG1                             00000001
PCFG2                             00000002
PCFG3                             00000003
PCL                               00000002
PCLATH                            0000000A
PCON                              0000008E
PEIE                              00000006
gpasm-0.14.2 #711 (Jul 26 2012)     addup.asm   9-4-2013  16:20:22          PAGE  8


SYMBOL TABLE
  LABEL                             VALUE 

PEN                               00000002
PIE1                              0000008C
PIE2                              0000008D
PIR1                              0000000C
PIR2                              0000000D
PORTA                             00000005
PORTB                             00000006
PORTC                             00000007
PORTD                             00000008
PORTE                             00000009
PR2                               00000092
PS0                               00000000
PS1                               00000001
PS2                               00000002
PSA                               00000003
PSAVE                             00000000
PSPIE                             00000007
PSPIF                             00000007
PSPMODE                           00000004
R                                 00000002
RBIE                              00000003
RBIF                              00000000
RC8_9                             00000006
RC9                               00000006
RCD8                              00000000
RCEN                              00000003
RCIE                              00000005
RCIF                              00000005
RCREG                             0000001A
RCSTA                             00000018
RD                                00000000
READ_WRITE                        00000002
RP0                               00000005
RP1                               00000006
RSEN                              00000001
RX9                               00000006
RX9D                              00000000
R_W                               00000002
S                                 00000003
SEN                               00000000
SMP                               00000007
SPBRG                             00000099
SPEN                              00000007
SREN                              00000005
SSAVE                             00000000
SSPADD                            00000093
SSPBUF                            00000013
SSPCON                            00000014
SSPCON2                           00000091
SSPEN                             00000005
SSPIE                             00000003
SSPIF                             00000003
SSPM0                             00000000
gpasm-0.14.2 #711 (Jul 26 2012)     addup.asm   9-4-2013  16:20:22          PAGE  9


SYMBOL TABLE
  LABEL                             VALUE 

SSPM1                             00000001
SSPM2                             00000002
SSPM3                             00000003
SSPOV                             00000006
SSPSTAT                           00000094
STATUS                            00000003
STK00                             00000000
STK01                             00000000
STK02                             00000000
STK03                             00000000
STK04                             00000000
STK05                             00000000
STK06                             00000000
STK07                             00000000
STK08                             00000000
STK09                             00000000
STK10                             00000000
STK11                             00000000
STK12                             00000000
SYNC                              00000004
T0CS                              00000005
T0IE                              00000005
T0IF                              00000002
T0SE                              00000004
T1CKPS0                           00000004
T1CKPS1                           00000005
T1CON                             00000010
T1INSYNC                          00000002
T1OSCEN                           00000003
T1SYNC                            00000002
T2CKPS0                           00000000
T2CKPS1                           00000001
T2CON                             00000012
TMR0                              00000001
TMR1CS                            00000001
TMR1H                             0000000F
TMR1IE                            00000000
TMR1IF                            00000000
TMR1L                             0000000E
TMR1ON                            00000000
TMR2                              00000011
TMR2IE                            00000001
TMR2IF                            00000001
TMR2ON                            00000002
TOUTPS0                           00000003
TOUTPS1                           00000004
TOUTPS2                           00000005
TOUTPS3                           00000006
TRISA                             00000085
TRISB                             00000086
TRISC                             00000087
TRISD                             00000088
TRISE                             00000089
gpasm-0.14.2 #711 (Jul 26 2012)     addup.asm   9-4-2013  16:20:22          PAGE 10


SYMBOL TABLE
  LABEL                             VALUE 

TRISE0                            00000000
TRISE1                            00000001
TRISE2                            00000002
TRMT                              00000001
TX8_9                             00000006
TX9                               00000006
TX9D                              00000000
TXD8                              00000000
TXEN                              00000005
TXIE                              00000004
TXIF                              00000004
TXREG                             00000019
TXSTA                             00000098
UA                                00000001
W                                 00000000
WCOL                              00000007
WR                                00000001
WREN                              00000002
WRERR                             00000003
WSAVE                             00000000
Z                                 00000002
_BODEN_OFF                        00003FBF
_BODEN_ON                         00003FFF
_CPD_OFF                          00003FFF
_CPD_ON                           00003EFF
_CP_ALL                           00000FCF
_CP_HALF                          00001FDF
_CP_OFF                           00003FFF
_CP_UPPER_256                     00002FEF
_DEBUG_OFF                        00003FFF
_DEBUG_ON                         000037FF
_HS_OSC                           00003FFE
_LP_OSC                           00003FFC
_LVP_OFF                          00003F7F
_LVP_ON                           00003FFF
_PWRTE_OFF                        00003FFF
_PWRTE_ON                         00003FF7
_RC_OSC                           00003FFF
_WDT_OFF                          00003FFB
_WDT_ON                           00003FFF
_WRT_ENABLE_OFF                   00003DFF
_WRT_ENABLE_ON                    00003FFF
_XT_OSC                           00003FFD
__16F877                          00000001
_addup                            00000000
r0x1000                           00000001
r0x1001                           00000000
r0x1002                           00000003
r0x1003                           00000002

Errors   :     0
Warnings :     0 reported,     0 suppressed
Messages :     0 reported,     0 suppressed
gpasm-0.14.2 #711 (Jul 26 2012)     addup.asm   9-4-2013  16:20:22          PAGE 11





